; Function Attrs: mustprogress nofree norecurse nosync nounwind willreturn memory(none) uwtable
define dso_local i64 @meshopt_encodeIndexSequenceBound(i64 noundef %0, i64 noundef %1) local_unnamed_addr #3 {
  br label %3

3:                                                ; preds = %3, %2
  %indvars.iv = phi i64 [ %indvars.iv.next, %3 ], [ 1, %2 ]
  %4 = icmp samesign ult i64 %indvars.iv, 32
  %5 = shl nuw nsw i64 1, %indvars.iv
  %6 = icmp ugt i64 %1, %5
  %7 = select i1 %4, i1 %6, i1 false
  %indvars.iv.next = add nuw nsw i64 %indvars.iv, 1
  br i1 %7, label %3, label %8, !llvm.loop !22

8:                                                ; preds = %3
  %9 = trunc i64 %indvars.iv to i8
  %.lhs.trunc = add i8 %9, 8
  %10 = udiv i8 %.lhs.trunc, 7
  %11 = zext nneg i8 %10 to i64
  %12 = mul i64 %0, %11
  %13 = add i64 %12, 5
  ret i64 %13
}